; Function Attrs: nofree nounwind uwtable
define void @Min_CubeWrite(ptr noundef captures(none) %0, ptr noundef readonly captures(none) %1) local_unnamed_addr #2 {
  %3 = getelementptr inbounds nuw i8, ptr %1, i64 8
  %4 = load i32, ptr %3, align 8
  %5 = and i32 %4, 1023
  %.not19 = icmp eq i32 %5, 0
  br i1 %.not19, label %._crit_edge, label %.lr.ph

.lr.ph:                                           ; preds = %2
  %6 = getelementptr inbounds nuw i8, ptr %1, i64 12
  br label %7

7:                                                ; preds = %.lr.ph, %7
  %.018 = phi i32 [ 0, %.lr.ph ], [ %18, %7 ]
  %8 = shl nuw nsw i32 %.018, 1
  %9 = lshr i32 %.018, 4
  %10 = zext nneg i32 %9 to i64
  %11 = getelementptr inbounds nuw [1 x i32], ptr %6, i64 0, i64 %10
  %12 = load i32, ptr %11, align 4, !tbaa !3
  %13 = and i32 %8, 30
  %14 = shl nuw nsw i32 1, %13
  %15 = and i32 %12, %14
  %.not = icmp eq i32 %15, 0
  %16 = shl nuw i32 2, %13
  %17 = and i32 %12, %16
  %.not13 = icmp eq i32 %17, 0
  %. = select i1 %.not13, i32 48, i32 45
  %.20 = select i1 %.not13, i32 63, i32 49
  %.sink = select i1 %.not, i32 %.20, i32 %.
  %fputc16 = tail call i32 @fputc(i32 %.sink, ptr %0)
  %18 = add nuw nsw i32 %.018, 1
  %19 = load i32, ptr %3, align 8
  %20 = and i32 %19, 1023
  %21 = icmp samesign ult i32 %18, %20
  br i1 %21, label %7, label %._crit_edge, !llvm.loop !20

._crit_edge:                                      ; preds = %7, %2
  %22 = tail call i64 @fwrite(ptr nonnull @.str.4, i64 3, i64 1, ptr %0)
  ret void
}